Certificate:
    Data:
        Version: 3 (0x2)
        Serial Number:
            72:36:40:c6:70:b2:2f:10:e9:6c:e8:55:59:42:19:48
        Signature Algorithm: sha256WithRSAEncryption
        Issuer: CN=Easy-RSA CA
        Validity
            Not Before: Mar  9 09:53:29 2023 GMT
            Not After : Jun 11 09:53:29 2025 GMT
        Subject: CN=tls1
        Subject Public Key Info:
            Public Key Algorithm: rsaEncryption
                Public-Key: (2048 bit)
                Modulus:
                    00:ab:ef:ee:af:d9:d4:a3:d4:58:96:52:fc:b7:61:
                    ba:30:5c:05:a2:ab:27:dc:67:3c:d5:40:62:9a:ec:
                    67:21:04:14:54:4a:e4:3a:88:15:aa:a4:7e:b0:ef:
                    71:57:d8:32:4b:e4:80:e5:70:85:c3:34:bc:43:d6:
                    41:18:df:83:07:56:d9:25:5c:db:ee:62:70:9d:30:
                    9f:24:cd:53:db:1c:eb:ee:ce:f0:4f:53:91:f5:97:
                    41:31:5e:ce:ae:9d:2c:08:a9:9e:f5:f0:62:93:a5:
                    07:66:07:4c:4d:95:d9:4c:ae:df:f0:cc:ae:bf:21:
                    26:1d:4e:63:d1:be:a5:7d:3a:78:7b:db:1a:ca:4b:
                    ae:3d:39:be:dc:c3:26:99:b2:23:35:f9:7d:05:1d:
                    9c:98:bb:9a:ef:51:50:7e:be:8f:3a:03:19:04:5a:
                    77:58:3f:9e:25:d9:01:24:f2:08:70:c2:5a:b8:dc:
                    e7:12:a9:03:fa:23:07:1b:0d:2b:a8:36:6d:02:e4:
                    9a:6b:36:f5:56:81:ed:45:8f:14:2a:b7:4c:88:6f:
                    28:3a:b1:b4:7a:d9:cc:8b:17:0c:79:e9:87:a5:a6:
                    de:f3:39:92:32:cf:82:dc:ac:d5:9d:7e:a0:0e:84:
                    14:38:ab:38:2c:ef:7d:73:76:0f:5b:d6:76:94:b3:
                    0c:d7
                Exponent: 65537 (0x10001)
        X509v3 extensions:
            X509v3 Basic Constraints: 
                CA:FALSE
            X509v3 Subject Key Identifier: 
                6D:87:9A:27:1C:06:A2:B0:31:75:84:19:74:40:72:6D:EE:24:DF:3C
            X509v3 Authority Key Identifier: 
                keyid:47:5E:D3:B3:50:E5:A8:97:55:61:FB:BA:3B:20:1A:A2:08:29:1B:6E
                DirName:/CN=Easy-RSA CA
                serial:2A:89:A9:7E:94:22:58:0D:9F:9C:15:7C:60:C7:AD:D6:B0:7C:B7:0B
            X509v3 Extended Key Usage: 
                TLS Web Server Authentication
            X509v3 Key Usage: 
                Digital Signature, Key Encipherment
            X509v3 Subject Alternative Name: 
                DNS:d1.test.tcl, DNS:d1.example.org
    Signature Algorithm: sha256WithRSAEncryption
    Signature Value:
        2c:66:50:aa:64:d4:78:a8:ee:f6:28:d9:63:8a:a7:ea:34:6d:
        ed:f2:d3:3a:8f:d6:68:85:01:34:9a:6d:d3:43:8d:8c:2f:8f:
        ae:45:17:39:48:f0:6b:f0:9e:bd:2d:a3:41:c4:76:ab:78:a2:
        a7:fc:69:dd:22:47:bb:91:04:0c:12:be:2d:71:6d:a0:29:da:
        4a:5e:6b:f8:28:88:bf:b8:35:0b:fa:45:1d:5a:0d:e6:9e:ec:
        0f:ae:33:da:ef:fa:56:cf:ed:ec:5c:2e:79:d3:6c:6d:4b:8b:
        33:95:eb:e0:c3:8e:34:7f:e6:2a:a1:20:5a:ff:89:1a:10:02:
        52:26:f1:56:54:1f:d1:2d:63:89:d3:69:c7:9f:a5:d3:f2:f3:
        4a:2a:40:63:1d:97:84:75:a8:6c:37:0e:b7:c2:24:97:ea:6b:
        53:3f:6c:72:b4:53:80:99:f6:fa:82:12:20:27:aa:9a:f1:12:
        ad:f2:33:45:c3:7f:7f:15:15:31:c9:e9:46:0a:73:27:e7:2e:
        a5:6a:29:a4:29:1b:44:82:f5:6d:c9:45:46:d1:96:38:d8:ba:
        91:5a:38:2a:bf:5a:bc:09:2c:a1:b1:8f:08:d8:e4:4a:9f:e4:
        d1:04:05:d9:33:40:6a:db:f8:53:1e:74:bb:90:58:5c:d2:78:
        cc:9f:a4:e6
-----BEGIN CERTIFICATE-----
MIIDejCCAmKgAwIBAgIQcjZAxnCyLxDpbOhVWUIZSDANBgkqhkiG9w0BAQsFADAW
MRQwEgYDVQQDDAtFYXN5LVJTQSBDQTAeFw0yMzAzMDkwOTUzMjlaFw0yNTA2MTEw
OTUzMjlaMA8xDTALBgNVBAMMBHRsczEwggEiMA0GCSqGSIb3DQEBAQUAA4IBDwAw
ggEKAoIBAQCr7+6v2dSj1FiWUvy3YbowXAWiqyfcZzzVQGKa7GchBBRUSuQ6iBWq
pH6w73FX2DJL5IDlcIXDNLxD1kEY34MHVtklXNvuYnCdMJ8kzVPbHOvuzvBPU5H1
l0ExXs6unSwIqZ718GKTpQdmB0xNldlMrt/wzK6/ISYdTmPRvqV9Onh72xrKS649
Ob7cwyaZsiM1+X0FHZyYu5rvUVB+vo86AxkEWndYP54l2QEk8ghwwlq43OcSqQP6
IwcbDSuoNm0C5JprNvVWge1FjxQqt0yIbyg6sbR62cyLFwx56Yelpt7zOZIyz4Lc
rNWdfqAOhBQ4qzgs731zdg9b1naUswzXAgMBAAGjgcowgccwCQYDVR0TBAIwADAd
BgNVHQ4EFgQUbYeaJxwGorAxdYQZdEBybe4k3zwwUQYDVR0jBEowSIAUR17Ts1Dl
qJdVYfu6OyAaoggpG26hGqQYMBYxFDASBgNVBAMMC0Vhc3ktUlNBIENBghQqial+
lCJYDZ+cFXxgx63WsHy3CzATBgNVHSUEDDAKBggrBgEFBQcDATALBgNVHQ8EBAMC
BaAwJgYDVR0RBB8wHYILZDEudGVzdC50Y2yCDmQxLmV4YW1wbGUub3JnMA0GCSqG
SIb3DQEBCwUAA4IBAQAsZlCqZNR4qO72KNljiqfqNG3t8tM6j9ZohQE0mm3TQ42M
L4+uRRc5SPBr8J69LaNBxHareKKn/GndIke7kQQMEr4tcW2gKdpKXmv4KIi/uDUL
+kUdWg3mnuwPrjPa7/pWz+3sXC5502xtS4szlevgw440f+YqoSBa/4kaEAJSJvFW
VB/RLWOJ02nHn6XT8vNKKkBjHZeEdahsNw63wiSX6mtTP2xytFOAmfb6ghIgJ6qa
8RKt8jNFw39/FRUxyelGCnMn5y6laimkKRtEgvVtyUVG0ZY42LqRWjgqv1q8CSyh
sY8I2ORKn+TRBAXZM0Bq2/hTHnS7kFhc0njMn6Tm
-----END CERTIFICATE-----
